target datalayout = "e-m:e-p270:32:32-p271:32:32-p272:64:64-i64:64-i128:128-f80:128-n8:16:32:64-S128"
target triple = "x86_64-pc-linux-gnu"

%struct.packing_data = type { ptr, ptr, i32, i32, ptr, i32, ptr, ptr, ptr, ptr, %union.pthread_mutex_t, ptr, i32, i32, i64, i64, ptr, ptr, ptr }
%union.pthread_mutex_t = type { %struct.__pthread_mutex_s }
%struct.__pthread_mutex_s = type { i32, i32, i32, i32, i32, i16, i16, %struct.__pthread_internal_list }
%struct.__pthread_internal_list = type { ptr, ptr }
%struct.object_entry = type { %struct.pack_idx_entry, ptr, i64, i32, i32, i32, i32, i32, [3 x i8], i8, i64 }
%struct.pack_idx_entry = type { %struct.object_id, i32, i64 }
%struct.object_id = type { [32 x i8], i32 }

@to_pack = internal global %struct.packing_data zeroinitializer, align 8
@the_repository = external global ptr, align 8
@.str = private unnamed_addr constant [25 x i8] c"unable to get size of %s\00", align 1
@.str.1 = private unnamed_addr constant [23 x i8] c"builtin/pack-objects.c\00", align 1
@.str.2 = private unnamed_addr constant [50 x i8] c"when e->type is a delta, it must belong to a pack\00", align 1
@.str.3 = private unnamed_addr constant [36 x i8] c"unable to parse object header of %s\00", align 1

; Function Attrs: inlinehint nounwind uwtable
define internal ptr @oe_in_pack(ptr noundef %0, ptr noundef %1) #2 {
  %3 = alloca ptr, align 8
  %4 = alloca ptr, align 8
  %5 = alloca ptr, align 8
  store ptr %0, ptr %4, align 8, !tbaa !4
  store ptr %1, ptr %5, align 8, !tbaa !9
  %6 = load ptr, ptr %4, align 8, !tbaa !4
  %7 = getelementptr inbounds nuw %struct.packing_data, ptr %6, i32 0, i32 8
  %8 = load ptr, ptr %7, align 8, !tbaa !28
  %9 = icmp ne ptr %8, null
  br i1 %9, label %10, label %22

10:                                               ; preds = %2
  %11 = load ptr, ptr %4, align 8, !tbaa !4
  %12 = getelementptr inbounds nuw %struct.packing_data, ptr %11, i32 0, i32 8
  %13 = load ptr, ptr %12, align 8, !tbaa !28
  %14 = load ptr, ptr %5, align 8, !tbaa !9
  %15 = getelementptr inbounds nuw %struct.object_entry, ptr %14, i32 0, i32 10
  %16 = load i64, ptr %15, align 8
  %17 = and i64 %16, 1023
  %18 = trunc i64 %17 to i32
  %19 = zext i32 %18 to i64
  %20 = getelementptr inbounds nuw ptr, ptr %13, i64 %19
  %21 = load ptr, ptr %20, align 8, !tbaa !15
  store ptr %21, ptr %3, align 8
  br label %36

22:                                               ; preds = %2
  %23 = load ptr, ptr %4, align 8, !tbaa !4
  %24 = getelementptr inbounds nuw %struct.packing_data, ptr %23, i32 0, i32 9
  %25 = load ptr, ptr %24, align 8, !tbaa !33
  %26 = load ptr, ptr %5, align 8, !tbaa !9
  %27 = load ptr, ptr %4, align 8, !tbaa !4
  %28 = getelementptr inbounds nuw %struct.packing_data, ptr %27, i32 0, i32 1
  %29 = load ptr, ptr %28, align 8, !tbaa !34
  %30 = ptrtoint ptr %26 to i64
  %31 = ptrtoint ptr %29 to i64
  %32 = sub i64 %30, %31
  %33 = sdiv exact i64 %32, 96
  %34 = getelementptr inbounds ptr, ptr %25, i64 %33
  %35 = load ptr, ptr %34, align 8, !tbaa !15
  store ptr %35, ptr %3, align 8
  br label %36

36:                                               ; preds = %22, %10
  %37 = load ptr, ptr %3, align 8
  ret ptr %37
}

; Function Attrs: inlinehint nounwind uwtable
define internal void @packing_data_unlock(ptr noundef %0) #2 {
  %2 = alloca ptr, align 8
  store ptr %0, ptr %2, align 8, !tbaa !4
  %3 = load ptr, ptr %2, align 8, !tbaa !4
  %4 = getelementptr inbounds nuw %struct.packing_data, ptr %3, i32 0, i32 10
  %5 = call i32 @pthread_mutex_unlock(ptr noundef %4) #11
  ret void
}

; Function Attrs: inlinehint nounwind uwtable
define internal void @packing_data_lock(ptr noundef %0) #2 {
  %2 = alloca ptr, align 8
  store ptr %0, ptr %2, align 8, !tbaa !4
  %3 = load ptr, ptr %2, align 8, !tbaa !4
  %4 = getelementptr inbounds nuw %struct.packing_data, ptr %3, i32 0, i32 10
  %5 = call i32 @pthread_mutex_lock(ptr noundef %4) #11
  ret void
}

; Function Attrs: nounwind uwtable
define dso_local i64 @oe_get_size_slow(ptr noundef %0, ptr noundef %1) #0 {
  %3 = alloca i64, align 8
  %4 = alloca ptr, align 8
  %5 = alloca ptr, align 8
  %6 = alloca ptr, align 8
  %7 = alloca ptr, align 8
  %8 = alloca ptr, align 8
  %9 = alloca i32, align 4
  %10 = alloca i64, align 8
  %11 = alloca i64, align 8
  %12 = alloca i64, align 8
  %13 = alloca i32, align 4
  store ptr %0, ptr %4, align 8, !tbaa !4
  store ptr %1, ptr %5, align 8, !tbaa !9
  call void @llvm.lifetime.start.p0(i64 8, ptr %6) #11
  call void @llvm.lifetime.start.p0(i64 8, ptr %7) #11
  call void @llvm.lifetime.start.p0(i64 8, ptr %8) #11
  call void @llvm.lifetime.start.p0(i64 4, ptr %9) #11
  call void @llvm.lifetime.start.p0(i64 8, ptr %10) #11
  call void @llvm.lifetime.start.p0(i64 8, ptr %11) #11
  call void @llvm.lifetime.start.p0(i64 8, ptr %12) #11
  %14 = load ptr, ptr %5, align 8, !tbaa !9
  %15 = getelementptr inbounds nuw %struct.object_entry, ptr %14, i32 0, i32 10
  %16 = load i64, ptr %15, align 8
  %17 = lshr i64 %16, 32
  %18 = and i64 %17, 7
  %19 = trunc i64 %18 to i32
  %20 = icmp ne i32 %19, 6
  br i1 %20, label %21, label %44

21:                                               ; preds = %2
  %22 = load ptr, ptr %5, align 8, !tbaa !9
  %23 = getelementptr inbounds nuw %struct.object_entry, ptr %22, i32 0, i32 10
  %24 = load i64, ptr %23, align 8
  %25 = lshr i64 %24, 32
  %26 = and i64 %25, 7
  %27 = trunc i64 %26 to i32
  %28 = icmp ne i32 %27, 7
  br i1 %28, label %29, label %44

29:                                               ; preds = %21
  call void @packing_data_lock(ptr noundef @to_pack)
  %30 = load ptr, ptr @the_repository, align 8, !tbaa !11
  %31 = load ptr, ptr %5, align 8, !tbaa !9
  %32 = getelementptr inbounds nuw %struct.object_entry, ptr %31, i32 0, i32 0
  %33 = getelementptr inbounds nuw %struct.pack_idx_entry, ptr %32, i32 0, i32 0
  %34 = call i32 @oid_object_info(ptr noundef %30, ptr noundef %33, ptr noundef %12)
  %35 = icmp slt i32 %34, 0
  br i1 %35, label %36, label %42

36:                                               ; preds = %29
  %37 = call ptr @_(ptr noundef @.str)
  %38 = load ptr, ptr %5, align 8, !tbaa !9
  %39 = getelementptr inbounds nuw %struct.object_entry, ptr %38, i32 0, i32 0
  %40 = getelementptr inbounds nuw %struct.pack_idx_entry, ptr %39, i32 0, i32 0
  %41 = call ptr @oid_to_hex(ptr noundef %40)
  call void (ptr, ...) @die(ptr noundef %37, ptr noundef %41) #12
  unreachable

42:                                               ; preds = %29
  call void @packing_data_unlock(ptr noundef @to_pack)
  %43 = load i64, ptr %12, align 8, !tbaa !13
  store i64 %43, ptr %3, align 8
  store i32 1, ptr %13, align 4
  br label %70

44:                                               ; preds = %21, %2
  %45 = load ptr, ptr %4, align 8, !tbaa !4
  %46 = load ptr, ptr %5, align 8, !tbaa !9
  %47 = call ptr @oe_in_pack(ptr noundef %45, ptr noundef %46)
  store ptr %47, ptr %6, align 8, !tbaa !15
  %48 = load ptr, ptr %6, align 8, !tbaa !15
  %49 = icmp ne ptr %48, null
  br i1 %49, label %51, label %50

50:                                               ; preds = %44
  call void (ptr, i32, ptr, ...) @BUG_fl(ptr noundef @.str.1, i32 noundef 2565, ptr noundef @.str.2) #12
  unreachable

51:                                               ; preds = %44
  call void @packing_data_lock(ptr noundef @to_pack)
  store ptr null, ptr %7, align 8, !tbaa !17
  %52 = load ptr, ptr %6, align 8, !tbaa !15
  %53 = load ptr, ptr %5, align 8, !tbaa !9
  %54 = getelementptr inbounds nuw %struct.object_entry, ptr %53, i32 0, i32 2
  %55 = load i64, ptr %54, align 8, !tbaa !19
  %56 = call ptr @use_pack(ptr noundef %52, ptr noundef %7, i64 noundef %55, ptr noundef %11)
  store ptr %56, ptr %8, align 8, !tbaa !24
  %57 = load ptr, ptr %8, align 8, !tbaa !24
  %58 = load i64, ptr %11, align 8, !tbaa !13
  %59 = call i64 @unpack_object_header_buffer(ptr noundef %57, i64 noundef %58, ptr noundef %9, ptr noundef %12)
  store i64 %59, ptr %10, align 8, !tbaa !13
  %60 = load i64, ptr %10, align 8, !tbaa !13
  %61 = icmp eq i64 %60, 0
  br i1 %61, label %62, label %68

62:                                               ; preds = %51
  %63 = call ptr @_(ptr noundef @.str.3)
  %64 = load ptr, ptr %5, align 8, !tbaa !9
  %65 = getelementptr inbounds nuw %struct.object_entry, ptr %64, i32 0, i32 0
  %66 = getelementptr inbounds nuw %struct.pack_idx_entry, ptr %65, i32 0, i32 0
  %67 = call ptr @oid_to_hex(ptr noundef %66)
  call void (ptr, ...) @die(ptr noundef %63, ptr noundef %67) #12
  unreachable

68:                                               ; preds = %51
  call void @unuse_pack(ptr noundef %7)
  call void @packing_data_unlock(ptr noundef @to_pack)
  %69 = load i64, ptr %12, align 8, !tbaa !13
  store i64 %69, ptr %3, align 8
  store i32 1, ptr %13, align 4
  br label %70

70:                                               ; preds = %68, %42
  call void @llvm.lifetime.end.p0(i64 8, ptr %12) #11
  call void @llvm.lifetime.end.p0(i64 8, ptr %11) #11
  call void @llvm.lifetime.end.p0(i64 8, ptr %10) #11
  call void @llvm.lifetime.end.p0(i64 4, ptr %9) #11
  call void @llvm.lifetime.end.p0(i64 8, ptr %8) #11
  call void @llvm.lifetime.end.p0(i64 8, ptr %7) #11
  call void @llvm.lifetime.end.p0(i64 8, ptr %6) #11
  %71 = load i64, ptr %3, align 8
  ret i64 %71
}