; Function Attrs: nounwind uwtable
define dso_local i64 @oe_get_size_slow(ptr noundef readonly captures(none) %0, ptr noundef %1) local_unnamed_addr #0 {
  %3 = alloca ptr, align 8
  %4 = alloca i32, align 4
  %5 = alloca i64, align 8
  %6 = alloca i64, align 8
  call void @llvm.lifetime.start.p0(i64 8, ptr nonnull %3) #25
  call void @llvm.lifetime.start.p0(i64 4, ptr nonnull %4) #25
  call void @llvm.lifetime.start.p0(i64 8, ptr nonnull %5) #25
  call void @llvm.lifetime.start.p0(i64 8, ptr nonnull %6) #25
  %7 = getelementptr inbounds nuw i8, ptr %1, i64 88
  %8 = load i64, ptr %7, align 8
  %9 = and i64 %8, 25769803776
  %switch = icmp eq i64 %9, 25769803776
  br i1 %switch, label %18, label %10

10:                                               ; preds = %2
  %11 = tail call i32 @pthread_mutex_lock(ptr noundef nonnull getelementptr inbounds nuw (i8, ptr @to_pack, i64 72)) #25
  %12 = load ptr, ptr @the_repository, align 8, !tbaa !4
  %13 = call i32 @oid_object_info(ptr noundef %12, ptr noundef nonnull %1, ptr noundef nonnull %6) #25
  %14 = icmp slt i32 %13, 0
  br i1 %14, label %15, label %47

15:                                               ; preds = %10
  %16 = call fastcc ptr @_(ptr noundef nonnull @.str)
  %17 = call ptr @oid_to_hex(ptr noundef nonnull %1) #25
  call void (ptr, ...) @die(ptr noundef %16, ptr noundef %17) #26
  unreachable

18:                                               ; preds = %2
  %19 = getelementptr inbounds nuw i8, ptr %0, i64 56
  %20 = load ptr, ptr %19, align 8, !tbaa !9
  %.not.i = icmp eq ptr %20, null
  br i1 %.not.i, label %24, label %21

21:                                               ; preds = %18
  %22 = and i64 %8, 1023
  %23 = getelementptr inbounds nuw ptr, ptr %20, i64 %22
  br label %oe_in_pack.exit

24:                                               ; preds = %18
  %25 = getelementptr inbounds nuw i8, ptr %0, i64 64
  %26 = load ptr, ptr %25, align 8, !tbaa !18
  %27 = getelementptr inbounds nuw i8, ptr %0, i64 8
  %28 = load ptr, ptr %27, align 8, !tbaa !19
  %29 = ptrtoint ptr %1 to i64
  %30 = ptrtoint ptr %28 to i64
  %31 = sub i64 %29, %30
  %32 = sdiv exact i64 %31, 12
  %33 = getelementptr inbounds i8, ptr %26, i64 %32
  br label %oe_in_pack.exit

oe_in_pack.exit:                                  ; preds = %21, %24
  %.0.in.i = phi ptr [ %23, %21 ], [ %33, %24 ]
  %.0.i = load ptr, ptr %.0.in.i, align 8, !tbaa !20
  %.not15 = icmp eq ptr %.0.i, null
  br i1 %.not15, label %34, label %35

34:                                               ; preds = %oe_in_pack.exit
  tail call void (ptr, i32, ptr, ...) @BUG_fl(ptr noundef nonnull @.str.1, i32 noundef 2565, ptr noundef nonnull @.str.2) #26
  unreachable

35:                                               ; preds = %oe_in_pack.exit
  %36 = tail call i32 @pthread_mutex_lock(ptr noundef nonnull getelementptr inbounds nuw (i8, ptr @to_pack, i64 72)) #25
  store ptr null, ptr %3, align 8, !tbaa !22
  %37 = getelementptr inbounds nuw i8, ptr %1, i64 56
  %38 = load i64, ptr %37, align 8, !tbaa !24
  %39 = call ptr @use_pack(ptr noundef nonnull %.0.i, ptr noundef nonnull %3, i64 noundef %38, ptr noundef nonnull %5) #25
  %40 = load i64, ptr %5, align 8, !tbaa !28
  %41 = call i64 @unpack_object_header_buffer(ptr noundef %39, i64 noundef %40, ptr noundef nonnull %4, ptr noundef nonnull %6) #25
  %42 = icmp eq i64 %41, 0
  br i1 %42, label %43, label %46

43:                                               ; preds = %35
  %44 = call fastcc ptr @_(ptr noundef nonnull @.str.3)
  %45 = call ptr @oid_to_hex(ptr noundef nonnull %1) #25
  call void (ptr, ...) @die(ptr noundef %44, ptr noundef %45) #26
  unreachable

46:                                               ; preds = %35
  call void @unuse_pack(ptr noundef nonnull %3) #25
  br label %47

47:                                               ; preds = %10, %46
  %48 = call i32 @pthread_mutex_unlock(ptr noundef nonnull getelementptr inbounds nuw (i8, ptr @to_pack, i64 72)) #25
  %.0 = load i64, ptr %6, align 8, !tbaa !28
  call void @llvm.lifetime.end.p0(i64 8, ptr nonnull %6) #25
  call void @llvm.lifetime.end.p0(i64 8, ptr nonnull %5) #25
  call void @llvm.lifetime.end.p0(i64 4, ptr nonnull %4) #25
  call void @llvm.lifetime.end.p0(i64 8, ptr nonnull %3) #25
  ret i64 %.0
}